; Function Attrs: mustprogress uwtable
define void @_ZN17grpc_event_engine12experimental10PollPoller12KickExternalEb(ptr noundef nonnull align 8 dereferenceable(73) %this, i1 noundef zeroext %ext) local_unnamed_addr #4 align 2 personality ptr @__gxx_personality_v0 {
entry:
  %ref.tmp = alloca %"class.absl::lts_20230802::Status", align 8
  %frombool = zext i1 %ext to i8
  %mu_ = getelementptr inbounds i8, ptr %this, i64 32
  tail call void @_ZN4absl12lts_202308025Mutex4LockEv(ptr noundef nonnull align 8 dereferenceable(8) %mu_)
  %closed_ = getelementptr inbounds i8, ptr %this, i64 72
  %0 = load i8, ptr %closed_, align 8
  %1 = and i8 %0, 1
  %tobool.not = icmp eq i8 %1, 0
  br i1 %tobool.not, label %if.end, label %cleanup

if.end:                                           ; preds = %entry
  %was_kicked_ = getelementptr inbounds i8, ptr %this, i64 49
  %2 = load i8, ptr %was_kicked_, align 1
  %3 = and i8 %2, 1
  %tobool2.not = icmp eq i8 %3, 0
  br i1 %tobool2.not, label %if.end7, label %if.then3

if.then3:                                         ; preds = %if.end
  br i1 %ext, label %if.then5, label %cleanup

if.then5:                                         ; preds = %if.then3
  %was_kicked_ext_ = getelementptr inbounds i8, ptr %this, i64 50
  store i8 1, ptr %was_kicked_ext_, align 2
  br label %cleanup

if.end7:                                          ; preds = %if.end
  store i8 1, ptr %was_kicked_, align 1
  %was_kicked_ext_10 = getelementptr inbounds i8, ptr %this, i64 50
  store i8 %frombool, ptr %was_kicked_ext_10, align 2
  %wakeup_fd_ = getelementptr inbounds i8, ptr %this, i64 64
  %4 = load ptr, ptr %wakeup_fd_, align 8
  %vtable = load ptr, ptr %4, align 8
  %vfn = getelementptr inbounds i8, ptr %vtable, i64 8
  %5 = load ptr, ptr %vfn, align 8
  invoke void %5(ptr nonnull sret(%"class.absl::lts_20230802::Status") align 8 %ref.tmp, ptr noundef nonnull align 8 dereferenceable(16) %4)
          to label %invoke.cont unwind label %lpad

invoke.cont:                                      ; preds = %if.end7
  %6 = load i64, ptr %ref.tmp, align 8
  %and.i.i.i = and i64 %6, 1
  %cmp.i.i.i = icmp eq i64 %and.i.i.i, 0
  br i1 %cmp.i.i.i, label %_ZN4absl12lts_202308026StatusD2Ev.exit, label %if.then.i.i

if.then.i.i:                                      ; preds = %invoke.cont
  invoke void @_ZN4absl12lts_202308026Status15UnrefNonInlinedEm(i64 noundef %6)
          to label %if.then15 unwind label %terminate.lpad.i

terminate.lpad.i:                                 ; preds = %if.then.i.i
  %7 = landingpad { ptr, i32 }
          catch ptr null
  %8 = extractvalue { ptr, i32 } %7, 0
  call void @__clang_call_terminate(ptr %8) #24
  unreachable

_ZN4absl12lts_202308026StatusD2Ev.exit:           ; preds = %invoke.cont
  %cmp.i = icmp eq i64 %6, 0
  br i1 %cmp.i, label %cleanup, label %if.then15

if.then15:                                        ; preds = %if.then.i.i, %_ZN4absl12lts_202308026StatusD2Ev.exit
  invoke void @gpr_assertion_failed(ptr noundef nonnull @.str, i32 noundef 577, ptr noundef nonnull @.str.6) #23
          to label %invoke.cont16 unwind label %lpad

invoke.cont16:                                    ; preds = %if.then15
  unreachable

lpad:                                             ; preds = %if.then15, %if.end7
  %9 = landingpad { ptr, i32 }
          cleanup
  invoke void @_ZN4absl12lts_202308025Mutex6UnlockEv(ptr noundef nonnull align 8 dereferenceable(8) %mu_)
          to label %_ZN4absl12lts_202308029MutexLockD2Ev.exit unwind label %terminate.lpad.i2

terminate.lpad.i2:                                ; preds = %lpad
  %10 = landingpad { ptr, i32 }
          catch ptr null
  %11 = extractvalue { ptr, i32 } %10, 0
  call void @__clang_call_terminate(ptr %11) #24
  unreachable

_ZN4absl12lts_202308029MutexLockD2Ev.exit:        ; preds = %lpad
  resume { ptr, i32 } %9

cleanup:                                          ; preds = %_ZN4absl12lts_202308026StatusD2Ev.exit, %if.then3, %if.then5, %entry
  invoke void @_ZN4absl12lts_202308025Mutex6UnlockEv(ptr noundef nonnull align 8 dereferenceable(8) %mu_)
          to label %_ZN4absl12lts_202308029MutexLockD2Ev.exit4 unwind label %terminate.lpad.i3

terminate.lpad.i3:                                ; preds = %cleanup
  %12 = landingpad { ptr, i32 }
          catch ptr null
  %13 = extractvalue { ptr, i32 } %12, 0
  call void @__clang_call_terminate(ptr %13) #24
  unreachable

_ZN4absl12lts_202308029MutexLockD2Ev.exit4:       ; preds = %cleanup
  ret void
}